; ModuleID = 'source-C-CXX/43/1295.c'
source_filename = "source-C-CXX/43/1295.c"
target datalayout = "e-m:e-p270:32:32-p271:32:32-p272:64:64-i64:64-f80:128-n8:16:32:64-S128"
target triple = "x86_64-pc-linux-gnu"

@.str = private unnamed_addr constant [3 x i8] c"%d\00", align 1
@str = private unnamed_addr constant [2 x i8] c"0\00", align 1

; Function Attrs: nofree nounwind sspstrong uwtable
define dso_local i32 @main() local_unnamed_addr #0 {
  %1 = alloca i32, align 4
  %2 = bitcast i32* %1 to i8*
  call void @llvm.lifetime.start.p0i8(i64 4, i8* nonnull %2) #4
  br label %3

3:                                                ; preds = %0, %42
  %4 = phi i32 [ 1, %0 ], [ %43, %42 ]
  %5 = call i32 (i8*, ...) @__isoc99_scanf(i8* getelementptr inbounds ([3 x i8], [3 x i8]* @.str, i64 0, i64 0), i32* nonnull %1)
  %6 = load i32, i32* %1, align 4, !tbaa !5
  %7 = icmp eq i32 %6, 0
  br i1 %7, label %8, label %11

8:                                                ; preds = %3
  %9 = call i32 @puts(i8* nonnull dereferenceable(1) getelementptr inbounds ([2 x i8], [2 x i8]* @str, i64 0, i64 0))
  %10 = load i32, i32* %1, align 4, !tbaa !5
  br label %11

11:                                               ; preds = %8, %3
  %12 = phi i32 [ %10, %8 ], [ %6, %3 ]
  %13 = icmp slt i32 %12, 0
  br i1 %13, label %14, label %18

14:                                               ; preds = %11
  %15 = call i32 @putchar(i32 45)
  %16 = load i32, i32* %1, align 4, !tbaa !5
  %17 = sub nsw i32 0, %16
  store i32 %17, i32* %1, align 4, !tbaa !5
  br label %18

18:                                               ; preds = %11, %14
  %19 = phi i32 [ %17, %14 ], [ %12, %11 ]
  %20 = icmp eq i32 %19, 0
  br i1 %20, label %42, label %21

21:                                               ; preds = %18
  %22 = srem i32 %19, 10
  %23 = icmp eq i32 %22, 0
  br i1 %23, label %27, label %24

24:                                               ; preds = %26, %21
  %25 = phi i32 [ %19, %21 ], [ %29, %26 ]
  br label %32

26:                                               ; preds = %27
  store i32 %29, i32* %1, align 4, !tbaa !5
  br label %24

27:                                               ; preds = %21, %27
  %28 = phi i32 [ %29, %27 ], [ %19, %21 ]
  %29 = sdiv i32 %28, 10
  %30 = srem i32 %29, 10
  %31 = icmp eq i32 %30, 0
  br i1 %31, label %27, label %26

32:                                               ; preds = %24, %32
  %33 = phi i32 [ %37, %32 ], [ %25, %24 ]
  %34 = srem i32 %33, 10
  %35 = call i32 (i8*, ...) @printf(i8* nonnull dereferenceable(1) getelementptr inbounds ([3 x i8], [3 x i8]* @.str, i64 0, i64 0), i32 %34)
  %36 = load i32, i32* %1, align 4, !tbaa !5
  %37 = sdiv i32 %36, 10
  store i32 %37, i32* %1, align 4, !tbaa !5
  %38 = add i32 %36, 9
  %39 = icmp ult i32 %38, 19
  br i1 %39, label %40, label %32

40:                                               ; preds = %32
  %41 = call i32 @putchar(i32 10)
  br label %42

42:                                               ; preds = %18, %40
  %43 = add nuw nsw i32 %4, 1
  %44 = icmp eq i32 %43, 7
  br i1 %44, label %45, label %3, !llvm.loop !9

45:                                               ; preds = %42
  call void @llvm.lifetime.end.p0i8(i64 4, i8* nonnull %2) #4
  ret i32 0
}

; Function Attrs: argmemonly mustprogress nofree nosync nounwind willreturn
declare void @llvm.lifetime.start.p0i8(i64 immarg, i8* nocapture) #1

; Function Attrs: nofree nounwind
declare noundef i32 @__isoc99_scanf(i8* nocapture noundef readonly, ...) local_unnamed_addr #2

; Function Attrs: nofree nounwind
declare noundef i32 @printf(i8* nocapture noundef readonly, ...) local_unnamed_addr #2

; Function Attrs: argmemonly mustprogress nofree nosync nounwind willreturn
declare void @llvm.lifetime.end.p0i8(i64 immarg, i8* nocapture) #1

; Function Attrs: nofree nounwind
declare noundef i32 @putchar(i32 noundef) local_unnamed_addr #3

; Function Attrs: nofree nounwind
declare noundef i32 @puts(i8* nocapture noundef readonly) local_unnamed_addr #3


!llvm.module.flags = !{!0, !1, !2, !3}
!llvm.ident = !{!4}

!0 = !{i32 1, !"wchar_size", i32 4}
!1 = !{i32 7, !"PIC Level", i32 2}
!2 = !{i32 7, !"PIE Level", i32 2}
!3 = !{i32 7, !"uwtable", i32 1}
!4 = !{!"clang version 13.0.0"}
!5 = !{!6, !6, i64 0}
!6 = !{!"int", !7, i64 0}
!7 = !{!"omnipotent char", !8, i64 0}
!8 = !{!"Simple C/C++ TBAA"}
!9 = distinct !{!9, !10}
!10 = !{!"llvm.loop.mustprogress"}
